Certificate:
    Data:
        Version: 3 (0x2)
        Serial Number:
            0e:51:1e:39:6e:02:01:88:3a:a8
        Signature Algorithm: sha1WithRSAEncryption
        Issuer: C=US, ST=MD, O=Development, CN=Dev_Root_CA/emailAddress=dev_root_ca@devcert.com
        Validity
            Not Before: Sep 29 18:49:53 2011 GMT
            Not After : Sep 26 18:49:53 2021 GMT
        Subject: C=US, ST=MD, L=columbia, O=Development, OU=Test, CN=localhost/emailAddress=localhost
        Subject Public Key Info:
            Public Key Algorithm: rsaEncryption
            RSA Public Key: (2048 bit)
                Modulus (2048 bit):
                    00:b3:b7:af:5a:7f:f9:88:86:ec:fe:bf:06:72:ba:
                    af:df:e8:08:a8:73:3c:14:6d:4d:36:af:e9:7a:c4:
                    25:69:a0:fe:56:a6:8c:29:a0:c4:c5:aa:9e:50:21:
                    96:a5:7c:64:48:13:75:71:57:45:a5:ba:67:45:15:
                    3f:6b:bb:c9:a8:63:57:e7:46:26:01:c4:0d:ec:84:
                    cc:97:62:8c:11:4e:d8:fc:73:8a:91:43:58:23:c0:
                    a6:23:29:1d:48:24:cb:80:7e:44:4d:08:6e:10:50:
                    f0:d7:09:d2:b6:da:91:3f:7f:73:39:64:e9:33:5a:
                    66:5f:7e:83:99:c3:65:41:c0:30:0f:07:ec:26:f6:
                    57:ce:26:b5:03:5f:2b:89:69:69:54:82:41:d7:6a:
                    9a:0b:e7:e9:b9:d8:ee:22:ae:c2:7a:6b:a2:c1:b4:
                    c3:b3:8f:2f:8b:ad:53:83:b9:af:4f:98:e6:f4:3e:
                    d4:7f:75:9a:ce:53:fa:d5:44:c8:ac:76:d7:a8:73:
                    d7:ea:79:b5:25:8e:60:0e:14:24:7b:61:aa:35:12:
                    3c:73:95:67:26:c5:06:dc:c4:9b:0f:d9:b0:7a:f8:
                    7e:80:54:c2:19:14:35:eb:d9:db:f3:3a:63:9c:c2:
                    d1:b6:66:e9:9c:0a:9f:bc:48:8f:ef:8e:19:ca:b5:
                    b1:d9
                Exponent: 65537 (0x10001)
        X509v3 extensions:
            X509v3 Basic Constraints: 
                CA:FALSE
            X509v3 Subject Key Identifier: 
                AE:06:07:AA:50:C9:73:AD:E4:C4:91:A1:EB:F9:1D:D9:7F:88:B8:DF
            X509v3 Authority Key Identifier: 
                keyid:30:28:5A:7E:F4:2A:0A:97:C2:A3:F3:79:30:04:44:98:DA:E0:3B:6D

            X509v3 Subject Alternative Name: 
                email:localhost
    Signature Algorithm: sha1WithRSAEncryption
        bf:22:47:d8:f3:b5:df:1f:74:06:ef:a8:9e:bd:00:95:b8:a2:
        50:07:ea:09:f4:67:ba:90:4c:69:38:0d:4a:b6:95:f5:10:30:
        e0:3b:d9:41:b0:d1:9f:c0:12:4c:a2:31:7d:81:e3:1f:24:6f:
        3a:bd:77:f0:b8:8b:24:51:b4:be:d3:cd:b2:c7:fe:f4:d3:b7:
        99:18:8f:f9:a9:5b:6f:21:9b:7f:6a:96:06:38:ca:4b:8c:47:
        c1:7c:28:72:4f:a2:8e:c3:8e:b3:39:87:6e:75:e8:0b:e8:86:
        9c:db:aa:3c:3a:45:82:92:46:bd:2f:6e:a6:af:96:60:62:c8:
        63:f2:f4:0f:c0:75:36:7e:5f:6c:d5:ec:0f:f9:39:0b:fc:85:
        66:df:05:82:c2:19:2a:fc:65:8e:3b:a7:d9:17:c8:11:90:8d:
        fc:17:c8:b2:1b:11:73:3b:32:1f:c6:b2:7f:65:bf:93:94:21:
        77:f0:d0:a4:15:1f:29:91:c8:6a:ef:75:12:57:be:9f:c4:49:
        8b:4b:7f:04:90:28:1b:1c:b2:8f:3f:84:a2:5f:5b:80:0e:d0:
        6b:7d:8d:ba:a6:09:e1:eb:2d:bd:f8:26:0e:2c:d5:05:98:37:
        e6:af:66:af:3f:69:18:12:bd:91:55:09:f2:cb:55:b4:92:d7:
        5a:cd:95:c3
-----BEGIN CERTIFICATE-----
MIID1jCCAr6gAwIBAgIKDlEeOW4CAYg6qDANBgkqhkiG9w0BAQUFADBuMQswCQYD
VQQGEwJVUzELMAkGA1UECBMCTUQxFDASBgNVBAoTC0RldmVsb3BtZW50MRQwEgYD
VQQDFAtEZXZfUm9vdF9DQTEmMCQGCSqGSIb3DQEJARYXZGV2X3Jvb3RfY2FAZGV2
Y2VydC5jb20wHhcNMTEwOTI5MTg0OTUzWhcNMjEwOTI2MTg0OTUzWjCBgDELMAkG
A1UEBhMCVVMxCzAJBgNVBAgTAk1EMREwDwYDVQQHEwhjb2x1bWJpYTEUMBIGA1UE
ChMLRGV2ZWxvcG1lbnQxDTALBgNVBAsTBFRlc3QxEjAQBgNVBAMTCWxvY2FsaG9z
dDEYMBYGCSqGSIb3DQEJARYJbG9jYWxob3N0MIIBIjANBgkqhkiG9w0BAQEFAAOC
AQ8AMIIBCgKCAQEAs7evWn/5iIbs/r8Gcrqv3+gIqHM8FG1NNq/pesQlaaD+VqaM
KaDExaqeUCGWpXxkSBN1cVdFpbpnRRU/a7vJqGNX50YmAcQN7ITMl2KMEU7Y/HOK
kUNYI8CmIykdSCTLgH5ETQhuEFDw1wnSttqRP39zOWTpM1pmX36DmcNlQcAwDwfs
JvZXzia1A18riWlpVIJB12qaC+fpudjuIq7CemuiwbTDs48vi61Tg7mvT5jm9D7U
f3WazlP61UTIrHbXqHPX6nm1JY5gDhQke2GqNRI8c5VnJsUG3MSbD9mwevh+gFTC
GRQ169nb8zpjnMLRtmbpnAqfvEiP744ZyrWx2QIDAQABo2MwYTAJBgNVHRMEAjAA
MB0GA1UdDgQWBBSuBgeqUMlzreTEkaHr+R3Zf4i43zAfBgNVHSMEGDAWgBQwKFp+
9CoKl8Kj83kwBESY2uA7bTAUBgNVHREEDTALgQlsb2NhbGhvc3QwDQYJKoZIhvcN
AQEFBQADggEBAL8iR9jztd8fdAbvqJ69AJW4olAH6gn0Z7qQTGk4DUq2lfUQMOA7
2UGw0Z/AEkyiMX2B4x8kbzq9d/C4iyRRtL7TzbLH/vTTt5kYj/mpW28hm39qlgY4
ykuMR8F8KHJPoo7DjrM5h2516Avohpzbqjw6RYKSRr0vbqavlmBiyGPy9A/AdTZ+
X2zV7A/5OQv8hWbfBYLCGSr8ZY47p9kXyBGQjfwXyLIbEXM7Mh/Gsn9lv5OUIXfw
0KQVHymRyGrvdRJXvp/ESYtLfwSQKBscso8/hKJfW4AO0Gt9jbqmCeHrLb34Jg4s
1QWYN+avZq8/aRgSvZFVCfLLVbSS11rNlcM=
-----END CERTIFICATE-----
